; Function Attrs: mustprogress uwtable
define void @_ZN8facebook5velox6memory15MemoryReclaimer5abortEPNS1_10MemoryPoolERKNSt15__exception_ptr13exception_ptrE(ptr nocapture nonnull readnone align 8 %this, ptr noundef %pool, ptr noundef nonnull align 8 dereferenceable(8) %error) unnamed_addr #0 align 2 personality ptr @__gxx_personality_v0 {
entry:
  %ref.tmp = alloca %"class.std::function.44", align 8
  %vtable = load ptr, ptr %pool, align 8
  %vfn = getelementptr inbounds i8, ptr %vtable, i64 24
  %0 = load ptr, ptr %vfn, align 8
  %call = tail call noundef i32 %0(ptr noundef nonnull align 8 dereferenceable(168) %pool)
  %cmp = icmp ne i32 %call, 0
  tail call void @llvm.assume(i1 %cmp)
  %_M_manager.i.i = getelementptr inbounds i8, ptr %ref.tmp, i64 16
  %_M_invoker.i = getelementptr inbounds i8, ptr %ref.tmp, i64 24
  %1 = getelementptr inbounds i8, ptr %ref.tmp, i64 8
  store i64 0, ptr %1, align 8
  %2 = ptrtoint ptr %error to i64
  store i64 %2, ptr %ref.tmp, align 8
  store ptr @"_ZNSt17_Function_handlerIFbPN8facebook5velox6memory10MemoryPoolEEZNS2_15MemoryReclaimer5abortES4_RKNSt15__exception_ptr13exception_ptrEE3$_0E9_M_invokeERKSt9_Any_dataOS4_", ptr %_M_invoker.i, align 8
  store ptr @"_ZNSt17_Function_handlerIFbPN8facebook5velox6memory10MemoryPoolEEZNS2_15MemoryReclaimer5abortES4_RKNSt15__exception_ptr13exception_ptrEE3$_0E10_M_managerERSt9_Any_dataRKSD_St18_Manager_operation", ptr %_M_manager.i.i, align 8
  %vtable3 = load ptr, ptr %pool, align 8
  %vfn4 = getelementptr inbounds i8, ptr %vtable3, i64 80
  %3 = load ptr, ptr %vfn4, align 8
  invoke void %3(ptr noundef nonnull align 8 dereferenceable(168) %pool, ptr noundef nonnull align 8 dereferenceable(32) %ref.tmp)
          to label %invoke.cont unwind label %lpad

invoke.cont:                                      ; preds = %entry
  %4 = load ptr, ptr %_M_manager.i.i, align 8
  %tobool.not.i.i = icmp eq ptr %4, null
  br i1 %tobool.not.i.i, label %_ZNSt8functionIFbPN8facebook5velox6memory10MemoryPoolEEED2Ev.exit, label %if.then.i.i

if.then.i.i:                                      ; preds = %invoke.cont
  %call.i.i = invoke noundef zeroext i1 %4(ptr noundef nonnull align 8 dereferenceable(16) %ref.tmp, ptr noundef nonnull align 8 dereferenceable(16) %ref.tmp, i32 noundef 3)
          to label %_ZNSt8functionIFbPN8facebook5velox6memory10MemoryPoolEEED2Ev.exit unwind label %terminate.lpad.i.i

terminate.lpad.i.i:                               ; preds = %if.then.i.i
  %5 = landingpad { ptr, i32 }
          catch ptr null
  %6 = extractvalue { ptr, i32 } %5, 0
  call void @__clang_call_terminate(ptr %6) #34
  unreachable

_ZNSt8functionIFbPN8facebook5velox6memory10MemoryPoolEEED2Ev.exit: ; preds = %invoke.cont, %if.then.i.i
  ret void

lpad:                                             ; preds = %entry
  %7 = landingpad { ptr, i32 }
          cleanup
  %8 = load ptr, ptr %_M_manager.i.i, align 8
  %tobool.not.i.i4 = icmp eq ptr %8, null
  br i1 %tobool.not.i.i4, label %_ZNSt8functionIFbPN8facebook5velox6memory10MemoryPoolEEED2Ev.exit8, label %if.then.i.i5

if.then.i.i5:                                     ; preds = %lpad
  %call.i.i6 = invoke noundef zeroext i1 %8(ptr noundef nonnull align 8 dereferenceable(16) %ref.tmp, ptr noundef nonnull align 8 dereferenceable(16) %ref.tmp, i32 noundef 3)
          to label %_ZNSt8functionIFbPN8facebook5velox6memory10MemoryPoolEEED2Ev.exit8 unwind label %terminate.lpad.i.i7

terminate.lpad.i.i7:                              ; preds = %if.then.i.i5
  %9 = landingpad { ptr, i32 }
          catch ptr null
  %10 = extractvalue { ptr, i32 } %9, 0
  call void @__clang_call_terminate(ptr %10) #34
  unreachable

_ZNSt8functionIFbPN8facebook5velox6memory10MemoryPoolEEED2Ev.exit8: ; preds = %lpad, %if.then.i.i5
  resume { ptr, i32 } %7
}